; Function Attrs: mustprogress uwtable
define noundef ptr @Java_sun_jvm_hotspot_debugger_linux_LinuxDebuggerLocal_lookupByAddress0(ptr noundef %0, ptr noundef %1, i64 noundef %2) local_unnamed_addr #0 {
  %4 = alloca i64, align 8
  %5 = load ptr, ptr @_ZL18p_ps_prochandle_ID, align 8
  %6 = load ptr, ptr %0, align 8
  %7 = getelementptr inbounds i8, ptr %6, i64 808
  %8 = load ptr, ptr %7, align 8
  %9 = tail call noundef i64 %8(ptr noundef nonnull %0, ptr noundef %1, ptr noundef %5)
  %10 = inttoptr i64 %9 to ptr
  %11 = call ptr @symbol_for_pc(ptr noundef %10, i64 noundef %2, ptr noundef nonnull %4)
  %12 = icmp eq ptr %11, null
  br i1 %12, label %30, label %13

13:                                               ; preds = %3
  %14 = load ptr, ptr %0, align 8
  %15 = getelementptr inbounds i8, ptr %14, i64 1336
  %16 = load ptr, ptr %15, align 8
  %17 = call noundef ptr %16(ptr noundef nonnull %0, ptr noundef nonnull %11)
  %18 = load ptr, ptr %0, align 8
  %19 = getelementptr inbounds i8, ptr %18, i64 120
  %20 = load ptr, ptr %19, align 8
  %21 = call noundef ptr %20(ptr noundef nonnull %0)
  %.not = icmp eq ptr %21, null
  br i1 %.not, label %22, label %30

22:                                               ; preds = %13
  %23 = load ptr, ptr @_ZL22createClosestSymbol_ID, align 8
  %24 = load i64, ptr %4, align 8
  %25 = call noundef ptr (ptr, ptr, ptr, ...) @_ZN7JNIEnv_16CallObjectMethodEP8_jobjectP10_jmethodIDz(ptr noundef nonnull align 8 dereferenceable(8) %0, ptr noundef %1, ptr noundef %23, ptr noundef %17, i64 noundef %24)
  %26 = load ptr, ptr %0, align 8
  %27 = getelementptr inbounds i8, ptr %26, i64 120
  %28 = load ptr, ptr %27, align 8
  %29 = call noundef ptr %28(ptr noundef nonnull %0)
  %.not14 = icmp eq ptr %29, null
  %. = select i1 %.not14, ptr %25, ptr null
  br label %30

30:                                               ; preds = %22, %13, %3
  %.0 = phi ptr [ null, %3 ], [ null, %13 ], [ %., %22 ]
  ret ptr %.0
}